; Function Attrs: nounwind uwtable
define hidden i32 @RSA_decrypt(ptr noundef %rsa, ptr noundef %out_len, ptr noundef %out, i64 noundef %max_out, ptr noundef %in, i64 noundef %in_len, i32 noundef %padding) local_unnamed_addr #0 {
entry:
  %0 = load ptr, ptr %rsa, align 8
  %decrypt = getelementptr inbounds nuw i8, ptr %0, i64 72
  %1 = load ptr, ptr %decrypt, align 8
  %tobool.not = icmp eq ptr %1, null
  br i1 %tobool.not, label %if.end, label %if.then

if.then:                                          ; preds = %entry
  %call = tail call i32 %1(ptr noundef nonnull %rsa, ptr noundef %out_len, ptr noundef %out, i64 noundef %max_out, ptr noundef %in, i64 noundef %in_len, i32 noundef %padding) #9
  br label %return

if.end:                                           ; preds = %entry
  %call3 = tail call i32 @rsa_default_decrypt(ptr noundef nonnull %rsa, ptr noundef %out_len, ptr noundef %out, i64 noundef %max_out, ptr noundef %in, i64 noundef %in_len, i32 noundef %padding) #9
  br label %return

return:                                           ; preds = %if.end, %if.then
  %retval.0 = phi i32 [ %call, %if.then ], [ %call3, %if.end ]
  ret i32 %retval.0
}